target datalayout = "e-m:e-p270:32:32-p271:32:32-p272:64:64-i64:64-i128:128-f80:128-n8:16:32:64-S128"
target triple = "x86_64-pc-linux-gnu"

%"class.OopStorageSet::Range" = type { %class.EnumRange }
%class.EnumRange = type { i32, i32 }
%"class.OopStorageSet::Iterator" = type { %class.EnumIterator }
%class.EnumIterator = type { i32 }

@ReferencesPerThread = external global i64, align 8

; Function Attrs: mustprogress nounwind uwtable
define linkonce_odr hidden noundef i32 @_ZN20PrimitiveConversions4castIjjTnNSt9enable_ifIXcvbeqstT_stT0_EiE4typeELi0ETnNS1_IXcvbsr3std11is_integralIS2_EE5valueEiE4typeELi0ETnNS1_IXcvbsr3std11is_integralIS3_EE5valueEiE4typeELi0EEES2_S3_(i32 noundef %0) #1 comdat align 2 {
  %2 = alloca i32, align 4
  store i32 %0, ptr %2, align 4
  %3 = load i32, ptr %2, align 4
  ret i32 %3
}

; Function Attrs: mustprogress nounwind uwtable
define linkonce_odr hidden void @_ZN19EnumIterationTraitsIN13OopStorageSet6WeakIdEE15assert_in_rangeIS1_EEvT_S4_S4_(i32 noundef %0, i32 noundef %1, i32 noundef %2) #1 comdat align 2 {
  %4 = alloca i32, align 4
  %5 = alloca i32, align 4
  %6 = alloca i32, align 4
  store i32 %0, ptr %4, align 4
  store i32 %1, ptr %5, align 4
  store i32 %2, ptr %6, align 4
  ret void
}

; Function Attrs: mustprogress nounwind uwtable
define linkonce_odr hidden noundef i32 @_ZN20PrimitiveConversions4castIN13OopStorageSet6WeakIdEjTnNSt9enable_ifIXcvbcl10check_castIT_T0_EEEiE4typeELi0ETnNS3_IXcvbsr3std7is_enumIS4_EE5valueEiE4typeELi0EEES4_S5_(i32 noundef %0) #1 comdat align 2 {
  %2 = alloca i32, align 4
  store i32 %0, ptr %2, align 4
  %3 = load i32, ptr %2, align 4
  %4 = call noundef i32 @_ZN20PrimitiveConversions4castIjjTnNSt9enable_ifIXcvbeqstT_stT0_EiE4typeELi0ETnNS1_IXcvbsr3std11is_integralIS2_EE5valueEiE4typeELi0ETnNS1_IXcvbsr3std11is_integralIS3_EE5valueEiE4typeELi0EEES2_S3_(i32 noundef %3)
  ret i32 %4
}

; Function Attrs: mustprogress nounwind uwtable
define linkonce_odr hidden noundef i32 @_ZN19EnumIterationTraitsIN13OopStorageSet6WeakIdEE16underlying_valueES1_(i32 noundef %0) #1 comdat align 2 {
  %2 = alloca i32, align 4
  store i32 %0, ptr %2, align 4
  %3 = load i32, ptr %2, align 4
  ret i32 %3
}

; Function Attrs: mustprogress nounwind uwtable
define linkonce_odr hidden void @_ZN9EnumRangeIN13OopStorageSet6WeakIdEEC2ES1_S1_(ptr noundef nonnull align 4 dereferenceable(8) %0, i32 noundef %1, i32 noundef %2) unnamed_addr #1 comdat align 2 {
  %4 = alloca ptr, align 8
  %5 = alloca i32, align 4
  %6 = alloca i32, align 4
  store ptr %0, ptr %4, align 8
  store i32 %1, ptr %5, align 4
  store i32 %2, ptr %6, align 4
  %7 = load ptr, ptr %4, align 8
  %8 = getelementptr inbounds %class.EnumRange, ptr %7, i32 0, i32 0
  %9 = load i32, ptr %5, align 4
  %10 = call noundef i32 @_ZN19EnumIterationTraitsIN13OopStorageSet6WeakIdEE16underlying_valueES1_(i32 noundef %9)
  store i32 %10, ptr %8, align 4
  %11 = getelementptr inbounds %class.EnumRange, ptr %7, i32 0, i32 1
  %12 = load i32, ptr %6, align 4
  %13 = call noundef i32 @_ZN19EnumIterationTraitsIN13OopStorageSet6WeakIdEE16underlying_valueES1_(i32 noundef %12)
  store i32 %13, ptr %11, align 4
  %14 = load i32, ptr %5, align 4
  %15 = call noundef i32 @_ZN20PrimitiveConversions4castIN13OopStorageSet6WeakIdEjTnNSt9enable_ifIXcvbcl10check_castIT_T0_EEEiE4typeELi0ETnNS3_IXcvbsr3std7is_enumIS4_EE5valueEiE4typeELi0EEES4_S5_(i32 noundef 5)
  %16 = call noundef i32 @_ZN20PrimitiveConversions4castIN13OopStorageSet6WeakIdEjTnNSt9enable_ifIXcvbcl10check_castIT_T0_EEEiE4typeELi0ETnNS3_IXcvbsr3std7is_enumIS4_EE5valueEiE4typeELi0EEES4_S5_(i32 noundef 15)
  call void @_ZN19EnumIterationTraitsIN13OopStorageSet6WeakIdEE15assert_in_rangeIS1_EEvT_S4_S4_(i32 noundef %14, i32 noundef %15, i32 noundef %16)
  %17 = load i32, ptr %6, align 4
  %18 = call noundef i32 @_ZN20PrimitiveConversions4castIN13OopStorageSet6WeakIdEjTnNSt9enable_ifIXcvbcl10check_castIT_T0_EEEiE4typeELi0ETnNS3_IXcvbsr3std7is_enumIS4_EE5valueEiE4typeELi0EEES4_S5_(i32 noundef 5)
  %19 = call noundef i32 @_ZN20PrimitiveConversions4castIN13OopStorageSet6WeakIdEjTnNSt9enable_ifIXcvbcl10check_castIT_T0_EEEiE4typeELi0ETnNS3_IXcvbsr3std7is_enumIS4_EE5valueEiE4typeELi0EEES4_S5_(i32 noundef 15)
  call void @_ZN19EnumIterationTraitsIN13OopStorageSet6WeakIdEE15assert_in_rangeIS1_EEvT_S4_S4_(i32 noundef %17, i32 noundef %18, i32 noundef %19)
  ret void
}

; Function Attrs: mustprogress nounwind uwtable
define linkonce_odr hidden void @_ZNK12EnumIteratorIN13OopStorageSet6WeakIdEE16assert_in_boundsEv(ptr noundef nonnull align 4 dereferenceable(4) %0) #1 comdat align 2 {
  %2 = alloca ptr, align 8
  store ptr %0, ptr %2, align 8
  ret void
}

; Function Attrs: mustprogress nounwind uwtable
define linkonce_odr hidden void @_ZN12EnumIteratorIN13OopStorageSet6WeakIdEEC2ES1_(ptr noundef nonnull align 4 dereferenceable(4) %0, i32 noundef %1) unnamed_addr #1 comdat align 2 {
  %3 = alloca ptr, align 8
  %4 = alloca i32, align 4
  store ptr %0, ptr %3, align 8
  store i32 %1, ptr %4, align 4
  %5 = load ptr, ptr %3, align 8
  %6 = getelementptr inbounds %class.EnumIterator, ptr %5, i32 0, i32 0
  %7 = load i32, ptr %4, align 4
  %8 = call noundef i32 @_ZN19EnumIterationTraitsIN13OopStorageSet6WeakIdEE16underlying_valueES1_(i32 noundef %7)
  store i32 %8, ptr %6, align 4
  %9 = load i32, ptr %4, align 4
  %10 = call noundef i32 @_ZN20PrimitiveConversions4castIN13OopStorageSet6WeakIdEjTnNSt9enable_ifIXcvbcl10check_castIT_T0_EEEiE4typeELi0ETnNS3_IXcvbsr3std7is_enumIS4_EE5valueEiE4typeELi0EEES4_S5_(i32 noundef 5)
  %11 = call noundef i32 @_ZN20PrimitiveConversions4castIN13OopStorageSet6WeakIdEjTnNSt9enable_ifIXcvbcl10check_castIT_T0_EEEiE4typeELi0ETnNS3_IXcvbsr3std7is_enumIS4_EE5valueEiE4typeELi0EEES4_S5_(i32 noundef 15)
  call void @_ZN19EnumIterationTraitsIN13OopStorageSet6WeakIdEE15assert_in_rangeIS1_EEvT_S4_S4_(i32 noundef %9, i32 noundef %10, i32 noundef %11)
  ret void
}

; Function Attrs: mustprogress nounwind uwtable
define linkonce_odr hidden void @_ZN9EnumRangeIN13OopStorageSet6WeakIdEEC2ES1_(ptr noundef nonnull align 4 dereferenceable(8) %0, i32 noundef %1) unnamed_addr #1 comdat align 2 {
  %3 = alloca ptr, align 8
  %4 = alloca i32, align 4
  store ptr %0, ptr %3, align 8
  store i32 %1, ptr %4, align 4
  %5 = load ptr, ptr %3, align 8
  %6 = load i32, ptr %4, align 4
  %7 = call noundef i32 @_ZN19EnumIterationTraitsIN13OopStorageSet6WeakIdEE10enumeratorEj(i32 noundef 15)
  call void @_ZN9EnumRangeIN13OopStorageSet6WeakIdEEC2ES1_S1_(ptr noundef nonnull align 4 dereferenceable(8) %5, i32 noundef %6, i32 noundef %7)
  ret void
}

; Function Attrs: mustprogress nounwind uwtable
define linkonce_odr hidden noundef i32 @_ZN19EnumIterationTraitsIN13OopStorageSet6WeakIdEE10enumeratorEj(i32 noundef %0) #1 comdat align 2 {
  %2 = alloca i32, align 4
  store i32 %0, ptr %2, align 4
  %3 = load i32, ptr %2, align 4
  ret i32 %3
}

; Function Attrs: mustprogress nounwind uwtable
define linkonce_odr hidden noundef nonnull align 4 dereferenceable(4) ptr @_ZN12EnumIteratorIN13OopStorageSet6WeakIdEEppEv(ptr noundef nonnull align 4 dereferenceable(4) %0) #1 comdat align 2 {
  %2 = alloca ptr, align 8
  store ptr %0, ptr %2, align 8
  %3 = load ptr, ptr %2, align 8
  call void @_ZNK12EnumIteratorIN13OopStorageSet6WeakIdEE16assert_in_boundsEv(ptr noundef nonnull align 4 dereferenceable(4) %3)
  %4 = getelementptr inbounds %class.EnumIterator, ptr %3, i32 0, i32 0
  %5 = load i32, ptr %4, align 4
  %6 = add i32 %5, 1
  store i32 %6, ptr %4, align 4
  ret ptr %3
}

; Function Attrs: mustprogress nounwind uwtable
define linkonce_odr hidden noundef ptr @_ZN13OopStorageSet7storageENS_6WeakIdE(i32 noundef %0) #1 comdat align 2 {
  %2 = alloca i32, align 4
  store i32 %0, ptr %2, align 4
  %3 = load i32, ptr %2, align 4
  %4 = call noundef ptr @_ZN13OopStorageSet11get_storageINS_6WeakIdEEEP10OopStorageT_(i32 noundef %3)
  ret ptr %4
}

; Function Attrs: mustprogress nounwind uwtable
define linkonce_odr hidden noundef i32 @_ZNK12EnumIteratorIN13OopStorageSet6WeakIdEEdeEv(ptr noundef nonnull align 4 dereferenceable(4) %0) #1 comdat align 2 {
  %2 = alloca ptr, align 8
  store ptr %0, ptr %2, align 8
  %3 = load ptr, ptr %2, align 8
  call void @_ZNK12EnumIteratorIN13OopStorageSet6WeakIdEE16assert_in_boundsEv(ptr noundef nonnull align 4 dereferenceable(4) %3)
  %4 = getelementptr inbounds %class.EnumIterator, ptr %3, i32 0, i32 0
  %5 = load i32, ptr %4, align 4
  %6 = call noundef i32 @_ZN19EnumIterationTraitsIN13OopStorageSet6WeakIdEE10enumeratorEj(i32 noundef %5)
  ret i32 %6
}

; Function Attrs: mustprogress nounwind uwtable
define linkonce_odr hidden noundef zeroext i1 @_ZNK12EnumIteratorIN13OopStorageSet6WeakIdEEneES2_(ptr noundef nonnull align 4 dereferenceable(4) %0, i32 %1) #1 comdat align 2 {
  %3 = alloca %class.EnumIterator, align 4
  %4 = alloca ptr, align 8
  %5 = getelementptr inbounds %class.EnumIterator, ptr %3, i32 0, i32 0
  store i32 %1, ptr %5, align 4
  store ptr %0, ptr %4, align 8
  %6 = load ptr, ptr %4, align 8
  %7 = getelementptr inbounds %class.EnumIterator, ptr %6, i32 0, i32 0
  %8 = load i32, ptr %7, align 4
  %9 = getelementptr inbounds %class.EnumIterator, ptr %3, i32 0, i32 0
  %10 = load i32, ptr %9, align 4
  %11 = icmp ne i32 %8, %10
  ret i1 %11
}

; Function Attrs: mustprogress nounwind uwtable
define linkonce_odr hidden i32 @_ZNK9EnumRangeIN13OopStorageSet6WeakIdEE3endEv(ptr noundef nonnull align 4 dereferenceable(8) %0) #1 comdat align 2 {
  %2 = alloca %class.EnumIterator, align 4
  %3 = alloca ptr, align 8
  store ptr %0, ptr %3, align 8
  %4 = load ptr, ptr %3, align 8
  %5 = getelementptr inbounds %class.EnumRange, ptr %4, i32 0, i32 1
  %6 = load i32, ptr %5, align 4
  %7 = call noundef i32 @_ZN19EnumIterationTraitsIN13OopStorageSet6WeakIdEE10enumeratorEj(i32 noundef %6)
  call void @_ZN12EnumIteratorIN13OopStorageSet6WeakIdEEC2ES1_(ptr noundef nonnull align 4 dereferenceable(4) %2, i32 noundef %7)
  %8 = getelementptr inbounds %class.EnumIterator, ptr %2, i32 0, i32 0
  %9 = load i32, ptr %8, align 4
  ret i32 %9
}

; Function Attrs: mustprogress nounwind uwtable
define linkonce_odr hidden void @_ZN13OopStorageSet8IteratorINS_6WeakIdEEC2E12EnumIteratorIS1_E(ptr noundef nonnull align 4 dereferenceable(4) %0, i32 %1) unnamed_addr #1 comdat align 2 {
  %3 = alloca %class.EnumIterator, align 4
  %4 = alloca ptr, align 8
  %5 = getelementptr inbounds %class.EnumIterator, ptr %3, i32 0, i32 0
  store i32 %1, ptr %5, align 4
  store ptr %0, ptr %4, align 8
  %6 = load ptr, ptr %4, align 8
  %7 = getelementptr inbounds %"class.OopStorageSet::Iterator", ptr %6, i32 0, i32 0
  call void @llvm.memcpy.p0.p0.i64(ptr align 4 %7, ptr align 4 %3, i64 4, i1 false)
  ret void
}

; Function Attrs: mustprogress nounwind uwtable
define linkonce_odr hidden i32 @_ZNK9EnumRangeIN13OopStorageSet6WeakIdEE5beginEv(ptr noundef nonnull align 4 dereferenceable(8) %0) #1 comdat align 2 {
  %2 = alloca %class.EnumIterator, align 4
  %3 = alloca ptr, align 8
  store ptr %0, ptr %3, align 8
  %4 = load ptr, ptr %3, align 8
  %5 = getelementptr inbounds %class.EnumRange, ptr %4, i32 0, i32 0
  %6 = load i32, ptr %5, align 4
  %7 = call noundef i32 @_ZN19EnumIterationTraitsIN13OopStorageSet6WeakIdEE10enumeratorEj(i32 noundef %6)
  call void @_ZN12EnumIteratorIN13OopStorageSet6WeakIdEEC2ES1_(ptr noundef nonnull align 4 dereferenceable(4) %2, i32 noundef %7)
  %8 = getelementptr inbounds %class.EnumIterator, ptr %2, i32 0, i32 0
  %9 = load i32, ptr %8, align 4
  ret i32 %9
}

; Function Attrs: mustprogress nounwind uwtable
define linkonce_odr hidden void @_ZN9EnumRangeIN13OopStorageSet6WeakIdEEC2Ev(ptr noundef nonnull align 4 dereferenceable(8) %0) unnamed_addr #1 comdat align 2 {
  %2 = alloca ptr, align 8
  store ptr %0, ptr %2, align 8
  %3 = load ptr, ptr %2, align 8
  %4 = call noundef i32 @_ZN19EnumIterationTraitsIN13OopStorageSet6WeakIdEE10enumeratorEj(i32 noundef 5)
  call void @_ZN9EnumRangeIN13OopStorageSet6WeakIdEEC2ES1_(ptr noundef nonnull align 4 dereferenceable(8) %3, i32 noundef %4)
  ret void
}

; Function Attrs: mustprogress nounwind uwtable
define linkonce_odr hidden noundef i64 @_Z4MIN2ImET_S0_S0_(i64 noundef %0, i64 noundef %1) #1 comdat {
  %3 = alloca i64, align 8
  %4 = alloca i64, align 8
  store i64 %0, ptr %3, align 8
  store i64 %1, ptr %4, align 8
  %5 = load i64, ptr %3, align 8
  %6 = load i64, ptr %4, align 8
  %7 = icmp ult i64 %5, %6
  br i1 %7, label %8, label %10

8:                                                ; preds = %2
  %9 = load i64, ptr %3, align 8
  br label %12

10:                                               ; preds = %2
  %11 = load i64, ptr %4, align 8
  br label %12

12:                                               ; preds = %10, %8
  %13 = phi i64 [ %9, %8 ], [ %11, %10 ]
  ret i64 %13
}

; Function Attrs: mustprogress nounwind uwtable
define linkonce_odr hidden noundef nonnull align 4 dereferenceable(4) ptr @_ZN13OopStorageSet8IteratorINS_6WeakIdEEppEv(ptr noundef nonnull align 4 dereferenceable(4) %0) #1 comdat align 2 {
  %2 = alloca ptr, align 8
  store ptr %0, ptr %2, align 8
  %3 = load ptr, ptr %2, align 8
  %4 = getelementptr inbounds %"class.OopStorageSet::Iterator", ptr %3, i32 0, i32 0
  %5 = call noundef nonnull align 4 dereferenceable(4) ptr @_ZN12EnumIteratorIN13OopStorageSet6WeakIdEEppEv(ptr noundef nonnull align 4 dereferenceable(4) %4)
  ret ptr %3
}

; Function Attrs: mustprogress nounwind uwtable
define linkonce_odr hidden noundef ptr @_ZNK13OopStorageSet8IteratorINS_6WeakIdEEdeEv(ptr noundef nonnull align 4 dereferenceable(4) %0) #1 comdat align 2 {
  %2 = alloca ptr, align 8
  store ptr %0, ptr %2, align 8
  %3 = load ptr, ptr %2, align 8
  %4 = getelementptr inbounds %"class.OopStorageSet::Iterator", ptr %3, i32 0, i32 0
  %5 = call noundef i32 @_ZNK12EnumIteratorIN13OopStorageSet6WeakIdEEdeEv(ptr noundef nonnull align 4 dereferenceable(4) %4)
  %6 = call noundef ptr @_ZN13OopStorageSet7storageENS_6WeakIdE(i32 noundef %5)
  ret ptr %6
}

; Function Attrs: mustprogress nounwind uwtable
define linkonce_odr hidden noundef zeroext i1 @_ZNK13OopStorageSet8IteratorINS_6WeakIdEEneES2_(ptr noundef nonnull align 4 dereferenceable(4) %0, i32 %1) #1 comdat align 2 {
  %3 = alloca %"class.OopStorageSet::Iterator", align 4
  %4 = alloca ptr, align 8
  %5 = alloca %class.EnumIterator, align 4
  %6 = getelementptr inbounds %"class.OopStorageSet::Iterator", ptr %3, i32 0, i32 0
  %7 = getelementptr inbounds %class.EnumIterator, ptr %6, i32 0, i32 0
  store i32 %1, ptr %7, align 4
  store ptr %0, ptr %4, align 8
  %8 = load ptr, ptr %4, align 8
  %9 = getelementptr inbounds %"class.OopStorageSet::Iterator", ptr %8, i32 0, i32 0
  %10 = getelementptr inbounds %"class.OopStorageSet::Iterator", ptr %3, i32 0, i32 0
  call void @llvm.memcpy.p0.p0.i64(ptr align 4 %5, ptr align 4 %10, i64 4, i1 false)
  %11 = getelementptr inbounds %class.EnumIterator, ptr %5, i32 0, i32 0
  %12 = load i32, ptr %11, align 4
  %13 = call noundef zeroext i1 @_ZNK12EnumIteratorIN13OopStorageSet6WeakIdEEneES2_(ptr noundef nonnull align 4 dereferenceable(4) %9, i32 %12)
  ret i1 %13
}

; Function Attrs: mustprogress nounwind uwtable
define linkonce_odr hidden i32 @_ZNK13OopStorageSet5RangeINS_6WeakIdEE3endEv(ptr noundef nonnull align 4 dereferenceable(8) %0) #1 comdat align 2 {
  %2 = alloca %"class.OopStorageSet::Iterator", align 4
  %3 = alloca ptr, align 8
  %4 = alloca %class.EnumIterator, align 4
  store ptr %0, ptr %3, align 8
  %5 = load ptr, ptr %3, align 8
  %6 = getelementptr inbounds %"class.OopStorageSet::Range", ptr %5, i32 0, i32 0
  %7 = call i32 @_ZNK9EnumRangeIN13OopStorageSet6WeakIdEE3endEv(ptr noundef nonnull align 4 dereferenceable(8) %6)
  %8 = getelementptr inbounds %class.EnumIterator, ptr %4, i32 0, i32 0
  store i32 %7, ptr %8, align 4
  %9 = getelementptr inbounds %class.EnumIterator, ptr %4, i32 0, i32 0
  %10 = load i32, ptr %9, align 4
  call void @_ZN13OopStorageSet8IteratorINS_6WeakIdEEC2E12EnumIteratorIS1_E(ptr noundef nonnull align 4 dereferenceable(4) %2, i32 %10)
  %11 = getelementptr inbounds %"class.OopStorageSet::Iterator", ptr %2, i32 0, i32 0
  %12 = getelementptr inbounds %class.EnumIterator, ptr %11, i32 0, i32 0
  %13 = load i32, ptr %12, align 4
  ret i32 %13
}

; Function Attrs: mustprogress nounwind uwtable
define linkonce_odr hidden i32 @_ZNK13OopStorageSet5RangeINS_6WeakIdEE5beginEv(ptr noundef nonnull align 4 dereferenceable(8) %0) #1 comdat align 2 {
  %2 = alloca %"class.OopStorageSet::Iterator", align 4
  %3 = alloca ptr, align 8
  %4 = alloca %class.EnumIterator, align 4
  store ptr %0, ptr %3, align 8
  %5 = load ptr, ptr %3, align 8
  %6 = getelementptr inbounds %"class.OopStorageSet::Range", ptr %5, i32 0, i32 0
  %7 = call i32 @_ZNK9EnumRangeIN13OopStorageSet6WeakIdEE5beginEv(ptr noundef nonnull align 4 dereferenceable(8) %6)
  %8 = getelementptr inbounds %class.EnumIterator, ptr %4, i32 0, i32 0
  store i32 %7, ptr %8, align 4
  %9 = getelementptr inbounds %class.EnumIterator, ptr %4, i32 0, i32 0
  %10 = load i32, ptr %9, align 4
  call void @_ZN13OopStorageSet8IteratorINS_6WeakIdEEC2E12EnumIteratorIS1_E(ptr noundef nonnull align 4 dereferenceable(4) %2, i32 %10)
  %11 = getelementptr inbounds %"class.OopStorageSet::Iterator", ptr %2, i32 0, i32 0
  %12 = getelementptr inbounds %class.EnumIterator, ptr %11, i32 0, i32 0
  %13 = load i32, ptr %12, align 4
  ret i32 %13
}

; Function Attrs: mustprogress nounwind uwtable
define linkonce_odr hidden void @_ZN13OopStorageSet5RangeINS_6WeakIdEEC2Ev(ptr noundef nonnull align 4 dereferenceable(8) %0) unnamed_addr #1 comdat align 2 {
  %2 = alloca ptr, align 8
  store ptr %0, ptr %2, align 8
  %3 = load ptr, ptr %2, align 8
  %4 = getelementptr inbounds %"class.OopStorageSet::Range", ptr %3, i32 0, i32 0
  call void @_ZN9EnumRangeIN13OopStorageSet6WeakIdEEC2Ev(ptr noundef nonnull align 4 dereferenceable(8) %4)
  ret void
}

; Function Attrs: mustprogress nounwind uwtable
define hidden noundef i32 @_ZN13WeakProcessor12ergo_workersEj(i32 noundef %0) #1 align 2 {
  %2 = alloca i32, align 4
  %3 = alloca i32, align 4
  %4 = alloca i64, align 8
  %5 = alloca ptr, align 8
  %6 = alloca %"class.OopStorageSet::Range", align 4
  %7 = alloca %"class.OopStorageSet::Iterator", align 4
  %8 = alloca %"class.OopStorageSet::Iterator", align 4
  %9 = alloca %"class.OopStorageSet::Iterator", align 4
  %10 = alloca ptr, align 8
  %11 = alloca i64, align 8
  store i32 %0, ptr %3, align 4
  %12 = load i64, ptr @ReferencesPerThread, align 8
  %13 = icmp eq i64 %12, 0
  br i1 %13, label %14, label %16

14:                                               ; preds = %1
  %15 = load i32, ptr %3, align 4
  store i32 %15, ptr %2, align 4
  br label %49

16:                                               ; preds = %1
  store i64 0, ptr %4, align 8
  call void @llvm.memset.p0.i64(ptr align 4 %6, i8 0, i64 8, i1 false)
  call void @_ZN13OopStorageSet5RangeINS_6WeakIdEEC2Ev(ptr noundef nonnull align 4 dereferenceable(8) %6)
  store ptr %6, ptr %5, align 8
  %17 = load ptr, ptr %5, align 8
  %18 = call i32 @_ZNK13OopStorageSet5RangeINS_6WeakIdEE5beginEv(ptr noundef nonnull align 4 dereferenceable(8) %17)
  %19 = getelementptr inbounds %"class.OopStorageSet::Iterator", ptr %7, i32 0, i32 0
  %20 = getelementptr inbounds %class.EnumIterator, ptr %19, i32 0, i32 0
  store i32 %18, ptr %20, align 4
  %21 = load ptr, ptr %5, align 8
  %22 = call i32 @_ZNK13OopStorageSet5RangeINS_6WeakIdEE3endEv(ptr noundef nonnull align 4 dereferenceable(8) %21)
  %23 = getelementptr inbounds %"class.OopStorageSet::Iterator", ptr %8, i32 0, i32 0
  %24 = getelementptr inbounds %class.EnumIterator, ptr %23, i32 0, i32 0
  store i32 %22, ptr %24, align 4
  br label %25

25:                                               ; preds = %36, %16
  call void @llvm.memcpy.p0.p0.i64(ptr align 4 %9, ptr align 4 %8, i64 4, i1 false)
  %26 = getelementptr inbounds %"class.OopStorageSet::Iterator", ptr %9, i32 0, i32 0
  %27 = getelementptr inbounds %class.EnumIterator, ptr %26, i32 0, i32 0
  %28 = load i32, ptr %27, align 4
  %29 = call noundef zeroext i1 @_ZNK13OopStorageSet8IteratorINS_6WeakIdEEneES2_(ptr noundef nonnull align 4 dereferenceable(4) %7, i32 %28)
  br i1 %29, label %30, label %38

30:                                               ; preds = %25
  %31 = call noundef ptr @_ZNK13OopStorageSet8IteratorINS_6WeakIdEEdeEv(ptr noundef nonnull align 4 dereferenceable(4) %7)
  store ptr %31, ptr %10, align 8
  %32 = load ptr, ptr %10, align 8
  %33 = call noundef i64 @_ZNK10OopStorage16allocation_countEv(ptr noundef nonnull align 8 dereferenceable(126) %32)
  %34 = load i64, ptr %4, align 8
  %35 = add i64 %34, %33
  store i64 %35, ptr %4, align 8
  br label %36

36:                                               ; preds = %30
  %37 = call noundef nonnull align 4 dereferenceable(4) ptr @_ZN13OopStorageSet8IteratorINS_6WeakIdEEppEv(ptr noundef nonnull align 4 dereferenceable(4) %7)
  br label %25

38:                                               ; preds = %25
  %39 = load i64, ptr %4, align 8
  %40 = load i64, ptr @ReferencesPerThread, align 8
  %41 = udiv i64 %39, %40
  %42 = add i64 1, %41
  store i64 %42, ptr %11, align 8
  %43 = load i64, ptr %11, align 8
  %44 = load i32, ptr %3, align 4
  %45 = zext i32 %44 to i64
  %46 = call noundef i64 @_Z4MIN2ImET_S0_S0_(i64 noundef %43, i64 noundef %45)
  store i64 %46, ptr %11, align 8
  %47 = load i64, ptr %11, align 8
  %48 = trunc i64 %47 to i32
  store i32 %48, ptr %2, align 4
  br label %49

49:                                               ; preds = %38, %14
  %50 = load i32, ptr %2, align 4
  ret i32 %50
}