; Function Attrs: mustprogress nounwind uwtable
define hidden noundef i32 @_ZN13WeakProcessor12ergo_workersEj(i32 noundef %0) local_unnamed_addr #0 align 2 {
  %2 = load i64, ptr @ReferencesPerThread, align 8
  %3 = icmp eq i64 %2, 0
  br i1 %3, label %15, label %.preheader

.preheader:                                       ; preds = %1, %.preheader
  %.01015 = phi i64 [ %6, %.preheader ], [ 0, %1 ]
  %.sroa.0.014 = phi i32 [ %7, %.preheader ], [ 5, %1 ]
  %4 = tail call noundef ptr @_ZN13OopStorageSet11get_storageINS_6WeakIdEEEP10OopStorageT_(i32 noundef %.sroa.0.014) #6
  %5 = tail call noundef i64 @_ZNK10OopStorage16allocation_countEv(ptr noundef nonnull align 8 dereferenceable(126) %4) #6
  %6 = add i64 %5, %.01015
  %7 = add nuw nsw i32 %.sroa.0.014, 1
  %.not = icmp eq i32 %7, 15
  br i1 %.not, label %8, label %.preheader

8:                                                ; preds = %.preheader
  %9 = load i64, ptr @ReferencesPerThread, align 8
  %10 = udiv i64 %6, %9
  %11 = add i64 %10, 1
  %12 = zext i32 %0 to i64
  %13 = tail call noundef i64 @llvm.umin.i64(i64 %11, i64 %12)
  %14 = trunc nuw i64 %13 to i32
  br label %15

15:                                               ; preds = %1, %8
  %.0 = phi i32 [ %14, %8 ], [ %0, %1 ]
  ret i32 %.0
}